#include <math.h>
#include <stdio.h>
#include <stdlib.h>
#include <string.h>

int main()
{
	char st[101];
	int i;
	gets(st);
    i=0;
	while (st[i]!='\0')
	{
		if ((st[i]!=' ')||(st[i-1]!=' ')) printf("%c",st[i]);
		i++;
	}
	return 0;
}
